target datalayout = "e-m:e-p270:32:32-p271:32:32-p272:64:64-i64:64-i128:128-f80:128-n8:16:32:64-S128"
target triple = "x86_64-pc-linux-gnu"

%struct.usershape_s = type { %struct._dtlink_s, ptr, i32, i8, i8, ptr, i32, ptr, i32, i32, i32, i32, i32, ptr, i64, ptr }
%struct._dtlink_s = type { ptr, %union.anon }
%union.anon = type { ptr }

@jpeg_size.standalone_markers = internal constant [11 x i8] c"\01\D0\D1\D2\D3\D4\D5\D6\D7\D8\D9", align 1

; Function Attrs: nounwind uwtable
define internal void @jpeg_size(ptr noundef %0) #0 {
  %2 = alloca ptr, align 8
  %3 = alloca i32, align 4
  %4 = alloca i32, align 4
  %5 = alloca i32, align 4
  %6 = alloca i32, align 4
  store ptr %0, ptr %2, align 8
  %7 = load ptr, ptr %2, align 8
  %8 = getelementptr inbounds %struct.usershape_s, ptr %7, i32 0, i32 12
  store i32 0, ptr %8, align 8
  br label %9

9:                                                ; preds = %85, %23, %18, %1
  %10 = load ptr, ptr %2, align 8
  %11 = getelementptr inbounds %struct.usershape_s, ptr %10, i32 0, i32 5
  %12 = load ptr, ptr %11, align 8
  %13 = call zeroext i1 @get_int_msb_first(ptr noundef %12, i64 noundef 1, ptr noundef %3)
  br i1 %13, label %15, label %14

14:                                               ; preds = %9
  br label %93

15:                                               ; preds = %9
  %16 = load i32, ptr %3, align 4
  %17 = icmp eq i32 %16, 255
  br i1 %17, label %18, label %19

18:                                               ; preds = %15
  br label %9

19:                                               ; preds = %15
  %20 = load i32, ptr %3, align 4
  %21 = call ptr @memchr(ptr noundef @jpeg_size.standalone_markers, i32 noundef %20, i64 noundef 11) #14
  %22 = icmp ne ptr %21, null
  br i1 %22, label %23, label %24

23:                                               ; preds = %19
  br label %9

24:                                               ; preds = %19
  %25 = load i32, ptr %3, align 4
  %26 = icmp eq i32 %25, 192
  br i1 %26, label %27, label %51

27:                                               ; preds = %24
  %28 = load ptr, ptr %2, align 8
  %29 = getelementptr inbounds %struct.usershape_s, ptr %28, i32 0, i32 5
  %30 = load ptr, ptr %29, align 8
  %31 = call i32 @fseek(ptr noundef %30, i64 noundef 3, i32 noundef 1)
  %32 = icmp eq i32 %31, 0
  br i1 %32, label %33, label %50

33:                                               ; preds = %27
  %34 = load ptr, ptr %2, align 8
  %35 = getelementptr inbounds %struct.usershape_s, ptr %34, i32 0, i32 5
  %36 = load ptr, ptr %35, align 8
  %37 = call zeroext i1 @get_int_msb_first(ptr noundef %36, i64 noundef 2, ptr noundef %5)
  br i1 %37, label %38, label %50

38:                                               ; preds = %33
  %39 = load ptr, ptr %2, align 8
  %40 = getelementptr inbounds %struct.usershape_s, ptr %39, i32 0, i32 5
  %41 = load ptr, ptr %40, align 8
  %42 = call zeroext i1 @get_int_msb_first(ptr noundef %41, i64 noundef 2, ptr noundef %6)
  br i1 %42, label %43, label %50

43:                                               ; preds = %38
  %44 = load i32, ptr %5, align 4
  %45 = load ptr, ptr %2, align 8
  %46 = getelementptr inbounds %struct.usershape_s, ptr %45, i32 0, i32 11
  store i32 %44, ptr %46, align 4
  %47 = load i32, ptr %6, align 4
  %48 = load ptr, ptr %2, align 8
  %49 = getelementptr inbounds %struct.usershape_s, ptr %48, i32 0, i32 10
  store i32 %47, ptr %49, align 8
  br label %50

50:                                               ; preds = %43, %38, %33, %27
  br label %93

51:                                               ; preds = %24
  %52 = load i32, ptr %3, align 4
  %53 = icmp eq i32 %52, 194
  br i1 %53, label %54, label %79

54:                                               ; preds = %51
  %55 = load ptr, ptr %2, align 8
  %56 = getelementptr inbounds %struct.usershape_s, ptr %55, i32 0, i32 5
  %57 = load ptr, ptr %56, align 8
  %58 = call i32 @fseek(ptr noundef %57, i64 noundef 3, i32 noundef 1)
  %59 = icmp ne i32 %58, 0
  br i1 %59, label %60, label %61

60:                                               ; preds = %54
  br label %93

61:                                               ; preds = %54
  %62 = load ptr, ptr %2, align 8
  %63 = getelementptr inbounds %struct.usershape_s, ptr %62, i32 0, i32 5
  %64 = load ptr, ptr %63, align 8
  %65 = call zeroext i1 @get_int_msb_first(ptr noundef %64, i64 noundef 2, ptr noundef %5)
  br i1 %65, label %66, label %78

66:                                               ; preds = %61
  %67 = load ptr, ptr %2, align 8
  %68 = getelementptr inbounds %struct.usershape_s, ptr %67, i32 0, i32 5
  %69 = load ptr, ptr %68, align 8
  %70 = call zeroext i1 @get_int_msb_first(ptr noundef %69, i64 noundef 2, ptr noundef %6)
  br i1 %70, label %71, label %78

71:                                               ; preds = %66
  %72 = load i32, ptr %5, align 4
  %73 = load ptr, ptr %2, align 8
  %74 = getelementptr inbounds %struct.usershape_s, ptr %73, i32 0, i32 11
  store i32 %72, ptr %74, align 4
  %75 = load i32, ptr %6, align 4
  %76 = load ptr, ptr %2, align 8
  %77 = getelementptr inbounds %struct.usershape_s, ptr %76, i32 0, i32 10
  store i32 %75, ptr %77, align 8
  br label %78

78:                                               ; preds = %71, %66, %61
  br label %93

79:                                               ; preds = %51
  %80 = load ptr, ptr %2, align 8
  %81 = getelementptr inbounds %struct.usershape_s, ptr %80, i32 0, i32 5
  %82 = load ptr, ptr %81, align 8
  %83 = call zeroext i1 @get_int_msb_first(ptr noundef %82, i64 noundef 2, ptr noundef %4)
  br i1 %83, label %85, label %84

84:                                               ; preds = %79
  br label %93

85:                                               ; preds = %79
  %86 = load ptr, ptr %2, align 8
  %87 = getelementptr inbounds %struct.usershape_s, ptr %86, i32 0, i32 5
  %88 = load ptr, ptr %87, align 8
  %89 = load i32, ptr %4, align 4
  %90 = sub nsw i32 %89, 2
  %91 = sext i32 %90 to i64
  %92 = call i32 @fseek(ptr noundef %88, i64 noundef %91, i32 noundef 1)
  br label %9

93:                                               ; preds = %84, %78, %60, %50, %14
  ret void
}