; Function Attrs: nofree nounwind uwtable
define internal fastcc void @jpeg_size(ptr noundef captures(none) initializes((72, 76)) %0) unnamed_addr #5 {
  %2 = alloca i32, align 4
  %3 = alloca i32, align 4
  %4 = getelementptr inbounds nuw i8, ptr %0, i64 72
  store i32 0, ptr %4, align 8
  %5 = getelementptr inbounds nuw i8, ptr %0, i64 32
  %6 = load ptr, ptr %5, align 8
  %7 = tail call i32 @fgetc(ptr noundef %6)
  %8 = tail call i32 @feof(ptr noundef %6) #21
  %.not.i60 = icmp ne i32 %8, 0
  %9 = icmp slt i32 %7, 0
  %or.cond61 = or i1 %.not.i60, %9
  br i1 %or.cond61, label %get_int_msb_first.exit.thread, label %get_int_msb_first.exit

get_int_msb_first.exit:                           ; preds = %1, %.backedge
  %10 = phi i32 [ %46, %.backedge ], [ %7, %1 ]
  %11 = icmp eq i32 %10, 255
  br i1 %11, label %.backedge, label %12

12:                                               ; preds = %get_int_msb_first.exit
  %13 = trunc i32 %10 to i8
  switch i8 %13, label %14 [
    i8 -39, label %.backedge
    i8 -40, label %.backedge
    i8 -41, label %.backedge
    i8 -42, label %.backedge
    i8 -43, label %.backedge
    i8 -44, label %.backedge
    i8 -45, label %.backedge
    i8 -46, label %.backedge
    i8 -47, label %.backedge
    i8 -48, label %.backedge
    i8 1, label %.backedge
  ]

14:                                               ; preds = %12
  %15 = load ptr, ptr %5, align 8
  switch i32 %10, label %.preheader [
    i32 192, label %16
    i32 194, label %25
  ]

16:                                               ; preds = %14
  %17 = tail call i32 @fseek(ptr noundef %15, i64 noundef 3, i32 noundef 1)
  %18 = icmp eq i32 %17, 0
  br i1 %18, label %19, label %get_int_msb_first.exit.thread

19:                                               ; preds = %16
  %20 = load ptr, ptr %5, align 8
  %21 = call fastcc zeroext i1 @get_int_msb_first(ptr noundef %20, i64 noundef 2, ptr noundef %2)
  br i1 %21, label %22, label %get_int_msb_first.exit.thread

22:                                               ; preds = %19
  %23 = load ptr, ptr %5, align 8
  %24 = call fastcc zeroext i1 @get_int_msb_first(ptr noundef %23, i64 noundef 2, ptr noundef %3)
  br i1 %24, label %get_int_msb_first.exit.thread.sink.split, label %get_int_msb_first.exit.thread

25:                                               ; preds = %14
  %26 = tail call i32 @fseek(ptr noundef %15, i64 noundef 3, i32 noundef 1)
  %.not = icmp eq i32 %26, 0
  br i1 %.not, label %27, label %get_int_msb_first.exit.thread

27:                                               ; preds = %25
  %28 = load ptr, ptr %5, align 8
  %29 = call fastcc zeroext i1 @get_int_msb_first(ptr noundef %28, i64 noundef 2, ptr noundef %2)
  br i1 %29, label %30, label %get_int_msb_first.exit.thread

30:                                               ; preds = %27
  %31 = load ptr, ptr %5, align 8
  %32 = call fastcc zeroext i1 @get_int_msb_first(ptr noundef %31, i64 noundef 2, ptr noundef %3)
  br i1 %32, label %get_int_msb_first.exit.thread.sink.split, label %get_int_msb_first.exit.thread

.preheader:                                       ; preds = %14, %35
  %.015.i27 = phi i64 [ %38, %35 ], [ 0, %14 ]
  %.01114.i28 = phi i32 [ %37, %35 ], [ 0, %14 ]
  %33 = tail call i32 @fgetc(ptr noundef %15)
  %34 = tail call i32 @feof(ptr noundef %15) #21
  %.not.i29 = icmp eq i32 %34, 0
  br i1 %.not.i29, label %35, label %get_int_msb_first.exit.thread

35:                                               ; preds = %.preheader
  %36 = shl i32 %.01114.i28, 8
  %37 = or i32 %33, %36
  %38 = add nuw nsw i64 %.015.i27, 1
  %exitcond.not.i31 = icmp eq i64 %38, 2
  br i1 %exitcond.not.i31, label %39, label %.preheader

39:                                               ; preds = %35
  %40 = icmp slt i32 %37, 0
  br i1 %40, label %get_int_msb_first.exit.thread, label %get_int_msb_first.exit32

get_int_msb_first.exit32:                         ; preds = %39
  %41 = load ptr, ptr %5, align 8
  %42 = add nsw i32 %37, -2
  %43 = sext i32 %42 to i64
  %44 = tail call i32 @fseek(ptr noundef %41, i64 noundef %43, i32 noundef 1)
  br label %.backedge

.backedge:                                        ; preds = %get_int_msb_first.exit32, %get_int_msb_first.exit, %12, %12, %12, %12, %12, %12, %12, %12, %12, %12, %12
  %45 = load ptr, ptr %5, align 8
  %46 = tail call i32 @fgetc(ptr noundef %45)
  %47 = tail call i32 @feof(ptr noundef %45) #21
  %.not.i = icmp ne i32 %47, 0
  %48 = icmp slt i32 %46, 0
  %or.cond = or i1 %.not.i, %48
  br i1 %or.cond, label %get_int_msb_first.exit.thread, label %get_int_msb_first.exit

get_int_msb_first.exit.thread.sink.split:         ; preds = %30, %22
  %49 = load i32, ptr %2, align 4
  %50 = getelementptr inbounds nuw i8, ptr %0, i64 68
  store i32 %49, ptr %50, align 4
  %51 = load i32, ptr %3, align 4
  %52 = getelementptr inbounds nuw i8, ptr %0, i64 64
  store i32 %51, ptr %52, align 8
  br label %get_int_msb_first.exit.thread

get_int_msb_first.exit.thread:                    ; preds = %.backedge, %39, %.preheader, %1, %get_int_msb_first.exit.thread.sink.split, %27, %30, %25, %16, %19, %22
  ret void
}